ccopy_reg
_reconstructor
p0
(csklearn.preprocessing.data
OneHotEncoder
p1
c__builtin__
object
p2
Ntp3
Rp4
(dp5
S'dtype'
p6
c__builtin__
float
p7
sS'handle_unknown'
p8
S'ignore'
p9
sS'sparse'
p10
I00
sS'categorical_features'
p11
S'all'
p12
sS'n_values'
p13
S'auto'
p14
sb.